target datalayout = "e-m:e-p270:32:32-p271:32:32-p272:64:64-i64:64-i128:128-f80:128-n8:16:32:64-S128"
target triple = "x86_64-pc-linux-gnu"

%struct._zend_array = type { %struct._zend_refcounted_h, %union.anon.4, i32, %union.anon.6, i32, i32, i32, i32, i64, ptr }
%struct._zend_refcounted_h = type { i32, %union.anon.3 }
%union.anon.3 = type { i32 }
%union.anon.4 = type { i32 }
%union.anon.6 = type { ptr }

@_php_libxml_initialized = internal global i32 0, align 4
@_php_libxml_default_entity_loader = internal global ptr null, align 8
@php_libxml_exports = internal global %struct._zend_array zeroinitializer, align 8
@_php_libxml_per_request_initialization = internal global i32 1, align 4

; Function Attrs: nounwind uwtable
define void @php_libxml_shutdown() #0 {
  %1 = load i32, ptr @_php_libxml_initialized, align 4
  %2 = icmp ne i32 %1, 0
  br i1 %2, label %3, label %5

3:                                                ; preds = %0
  call void @xmlRelaxNGCleanupTypes()
  call void @zend_hash_destroy(ptr noundef @php_libxml_exports)
  %4 = load ptr, ptr @_php_libxml_default_entity_loader, align 8
  call void @xmlSetExternalEntityLoader(ptr noundef %4)
  store i32 0, ptr @_php_libxml_initialized, align 4
  br label %5

5:                                                ; preds = %3, %0
  ret void
}

; Function Attrs: nounwind uwtable
define internal i32 @zm_shutdown_libxml(i32 noundef %0, i32 noundef %1) #0 {
  %3 = alloca i32, align 4
  %4 = alloca i32, align 4
  store i32 %0, ptr %3, align 4
  store i32 %1, ptr %4, align 4
  %5 = load i32, ptr @_php_libxml_per_request_initialization, align 4
  %6 = icmp ne i32 %5, 0
  br i1 %6, label %10, label %7

7:                                                ; preds = %2
  call void @xmlSetGenericErrorFunc(ptr noundef null, ptr noundef null)
  %8 = call ptr @xmlParserInputBufferCreateFilenameDefault(ptr noundef null)
  %9 = call ptr @xmlOutputBufferCreateFilenameDefault(ptr noundef null)
  br label %10

10:                                               ; preds = %7, %2
  call void @php_libxml_shutdown()
  ret i32 0
}