; Function Attrs: nounwind uwtable
define internal noundef i32 @zm_shutdown_libxml(i32 %0, i32 %1) #0 {
  %.b = load i1, ptr @_php_libxml_per_request_initialization, align 4
  br i1 %.b, label %3, label %6

3:                                                ; preds = %2
  tail call void @xmlSetGenericErrorFunc(ptr noundef null, ptr noundef null) #17
  %4 = tail call ptr @xmlParserInputBufferCreateFilenameDefault(ptr noundef null) #17
  %5 = tail call ptr @xmlOutputBufferCreateFilenameDefault(ptr noundef null) #17
  br label %6

6:                                                ; preds = %3, %2
  %.b.i = load i1, ptr @_php_libxml_initialized, align 4
  br i1 %.b.i, label %7, label %php_libxml_shutdown.exit

7:                                                ; preds = %6
  tail call void @xmlRelaxNGCleanupTypes() #17
  tail call void @zend_hash_destroy(ptr noundef nonnull @php_libxml_exports) #17
  %8 = load ptr, ptr @_php_libxml_default_entity_loader, align 8
  tail call void @xmlSetExternalEntityLoader(ptr noundef %8) #17
  store i1 false, ptr @_php_libxml_initialized, align 4
  br label %php_libxml_shutdown.exit

php_libxml_shutdown.exit:                         ; preds = %6, %7
  ret i32 0
}